; Function Attrs: nounwind uwtable
define internal range(i32 -12, 1) i32 @sdr2_read_header(ptr noundef %0) #1 {
  %2 = tail call ptr @avformat_new_stream(ptr noundef %0, ptr noundef null) #4
  %.not = icmp eq ptr %2, null
  br i1 %.not, label %30, label %3

3:                                                ; preds = %1
  %4 = tail call ptr @avformat_new_stream(ptr noundef %0, ptr noundef null) #4
  %.not22 = icmp eq ptr %4, null
  br i1 %.not22, label %30, label %5

5:                                                ; preds = %3
  %6 = getelementptr inbounds nuw i8, ptr %0, i64 32
  %7 = load ptr, ptr %6, align 8, !tbaa !12
  %8 = tail call i64 @avio_skip(ptr noundef %7, i64 noundef 20) #4
  %9 = load ptr, ptr %6, align 8, !tbaa !12
  %10 = tail call i32 @avio_rl32(ptr noundef %9) #4
  tail call void @avpriv_set_pts_info(ptr noundef nonnull %4, i32 noundef 64, i32 noundef 1, i32 noundef %10) #4
  %11 = getelementptr inbounds nuw i8, ptr %4, i64 16
  %12 = load ptr, ptr %11, align 8, !tbaa !27
  store i32 0, ptr %12, align 8, !tbaa !34
  %13 = load ptr, ptr %6, align 8, !tbaa !12
  %14 = tail call i32 @avio_rl32(ptr noundef %13) #4
  %15 = load ptr, ptr %11, align 8, !tbaa !27
  %16 = getelementptr inbounds nuw i8, ptr %15, i64 72
  store i32 %14, ptr %16, align 8, !tbaa !37
  %17 = load ptr, ptr %6, align 8, !tbaa !12
  %18 = tail call i32 @avio_rl32(ptr noundef %17) #4
  %19 = load ptr, ptr %11, align 8, !tbaa !27
  %20 = getelementptr inbounds nuw i8, ptr %19, i64 76
  store i32 %18, ptr %20, align 4, !tbaa !38
  %21 = getelementptr inbounds nuw i8, ptr %19, i64 4
  store i32 27, ptr %21, align 4, !tbaa !39
  %22 = getelementptr inbounds nuw i8, ptr %4, i64 808
  store i32 1, ptr %22, align 8, !tbaa !40
  %23 = getelementptr inbounds nuw i8, ptr %2, i64 16
  %24 = load ptr, ptr %23, align 8, !tbaa !27
  store i32 1, ptr %24, align 8, !tbaa !34
  %25 = getelementptr inbounds nuw i8, ptr %24, i64 132
  store i32 1, ptr %25, align 4, !tbaa !52
  %26 = getelementptr inbounds nuw i8, ptr %24, i64 152
  store i32 8000, ptr %26, align 8, !tbaa !53
  %27 = getelementptr inbounds nuw i8, ptr %24, i64 4
  store i32 65536, ptr %27, align 4, !tbaa !39
  tail call void @avpriv_set_pts_info(ptr noundef nonnull %2, i32 noundef 64, i32 noundef 1, i32 noundef 8000) #4
  %28 = load ptr, ptr %6, align 8, !tbaa !12
  %29 = tail call i64 @avio_seek(ptr noundef %28, i64 noundef 168, i32 noundef 0) #4
  br label %30

30:                                               ; preds = %3, %1, %5
  %.0 = phi i32 [ 0, %5 ], [ -12, %1 ], [ -12, %3 ]
  ret i32 %.0
}